Certificate:
    Data:
        Version: 3 (0x2)
        Serial Number: 1 (0x1)
    Signature Algorithm: sha256WithRSAEncryption
        Issuer: C=JP, ST=Tokyo, O=Internet Widgits Pty Ltd
        Validity
            Not Before: Jul 30 09:33:35 2019 GMT
            Not After : Jul 29 09:33:35 2023 GMT
        Subject: C=JP, ST=Tokyo, O=Internet Widgits Pty Ltd, CN=*.163.com
        Subject Public Key Info:
            Public Key Algorithm: rsaEncryption
                Public-Key: (2048 bit)
                Modulus:
                    00:b8:71:25:69:f4:dc:14:e1:4c:d1:d9:db:60:82:
                    36:41:9e:f5:e1:33:a6:eb:da:ae:36:17:42:2a:f3:
                    08:e0:24:61:70:72:9b:32:08:bf:17:c0:eb:fe:3e:
                    96:20:be:bf:33:57:61:a0:14:53:a4:fa:f4:be:1b:
                    09:1b:5c:71:87:2e:0c:e8:45:97:e0:9b:41:2c:f1:
                    06:69:21:b4:ab:0e:d2:31:84:93:b7:22:ff:fb:7e:
                    f8:f0:9b:61:ae:b0:6a:cb:71:cc:5a:16:aa:23:a1:
                    02:9c:e8:d3:16:57:a9:37:b2:08:61:0c:b2:08:1b:
                    fb:fe:7b:4d:86:d1:85:0e:42:09:eb:50:f6:e0:61:
                    0e:17:e7:b2:30:04:dd:ea:fe:03:3c:60:60:c8:a0:
                    75:2e:10:b7:4e:da:d3:46:c3:9b:96:0e:48:23:4f:
                    b5:5a:e2:8f:f3:c4:b9:49:54:89:96:b4:53:54:a0:
                    9f:d1:ef:a9:07:43:b9:e5:74:c2:1e:43:68:3c:65:
                    b7:fa:ca:e2:a7:d4:1e:4a:d2:64:3f:24:9f:98:de:
                    91:38:da:6a:66:11:7e:a7:ef:e3:36:ca:d7:a9:c0:
                    ac:10:f8:0f:0b:4c:60:e2:5f:3e:9c:e7:d3:a0:ac:
                    75:e5:d8:6c:b4:97:e3:d9:dd:29:fd:c2:32:61:b9:
                    7b:4b
                Exponent: 65537 (0x10001)
        X509v3 extensions:
            X509v3 Basic Constraints: 
                CA:FALSE
            Netscape Comment: 
                OpenSSL Generated Certificate
            X509v3 Subject Key Identifier: 
                D5:38:F3:B7:1E:06:93:42:E6:2F:D8:3D:7B:B2:85:3F:34:42:05:88
            X509v3 Authority Key Identifier: 
                keyid:1E:E9:BB:D7:28:D0:E0:23:B1:BB:CF:9E:5A:04:D2:CE:3B:A9:C7:BD

    Signature Algorithm: sha256WithRSAEncryption
         07:55:33:38:aa:d4:34:fc:2d:40:ea:3b:88:25:d0:af:0f:92:
         a9:15:bd:5b:54:be:78:37:ac:96:47:ff:e5:13:03:f6:54:0f:
         6a:15:1b:20:b3:ed:63:22:e4:f5:47:a8:db:a2:88:3f:d7:61:
         87:86:f5:7c:72:21:a8:19:ee:55:7a:e4:64:06:46:26:37:39:
         ca:b0:50:01:93:c1:81:46:97:1b:02:fb:a6:e0:a1:f2:d6:0b:
         05:70:f1:16:d8:5d:25:dc:35:d3:4a:da:a9:ef:8b:82:b8:2e:
         a9:37:11:36:35:ff:18:c1:b6:dc:04:9d:ad:13:41:3b:c2:d9:
         5f:a5:1f:35:d9:ad:90:ce:11:de:fe:1a:7b:37:d9:64:8a:64:
         34:10:4d:58:e5:cb:53:de:21:d8:56:68:cc:ae:ef:7f:04:13:
         b6:0a:d0:87:81:e7:47:88:d3:03:07:99:56:e5:fc:44:f7:4c:
         2f:52:8c:f9:81:fc:7c:6c:c3:e1:fe:3b:aa:b2:04:fd:53:43:
         83:02:ec:3e:c6:9f:5b:0a:82:2f:8e:8c:62:1b:1a:e3:b3:a3:
         67:85:d4:a1:34:6d:d5:ac:4e:b4:9e:9b:6b:b7:62:01:de:f3:
         fd:d6:f0:f7:a1:78:05:ee:39:e5:eb:14:61:4f:8f:e1:83:7b:
         dc:29:fa:c4
-----BEGIN CERTIFICATE-----
MIIDijCCAnKgAwIBAgIBATANBgkqhkiG9w0BAQsFADBAMQswCQYDVQQGEwJKUDEO
MAwGA1UECAwFVG9reW8xITAfBgNVBAoMGEludGVybmV0IFdpZGdpdHMgUHR5IEx0
ZDAeFw0xOTA3MzAwOTMzMzVaFw0yMzA3MjkwOTMzMzVaMFQxCzAJBgNVBAYTAkpQ
MQ4wDAYDVQQIDAVUb2t5bzEhMB8GA1UECgwYSW50ZXJuZXQgV2lkZ2l0cyBQdHkg
THRkMRIwEAYDVQQDDAkqLjE2My5jb20wggEiMA0GCSqGSIb3DQEBAQUAA4IBDwAw
ggEKAoIBAQC4cSVp9NwU4UzR2dtggjZBnvXhM6br2q42F0Iq8wjgJGFwcpsyCL8X
wOv+PpYgvr8zV2GgFFOk+vS+GwkbXHGHLgzoRZfgm0Es8QZpIbSrDtIxhJO3Iv/7
fvjwm2GusGrLccxaFqojoQKc6NMWV6k3sghhDLIIG/v+e02G0YUOQgnrUPbgYQ4X
57IwBN3q/gM8YGDIoHUuELdO2tNGw5uWDkgjT7Va4o/zxLlJVImWtFNUoJ/R76kH
Q7nldMIeQ2g8Zbf6yuKn1B5K0mQ/JJ+Y3pE42mpmEX6n7+M2ytepwKwQ+A8LTGDi
Xz6c59OgrHXl2Gy0l+PZ3Sn9wjJhuXtLAgMBAAGjezB5MAkGA1UdEwQCMAAwLAYJ
YIZIAYb4QgENBB8WHU9wZW5TU0wgR2VuZXJhdGVkIENlcnRpZmljYXRlMB0GA1Ud
DgQWBBTVOPO3HgaTQuYv2D17soU/NEIFiDAfBgNVHSMEGDAWgBQe6bvXKNDgI7G7
z55aBNLOO6nHvTANBgkqhkiG9w0BAQsFAAOCAQEAB1UzOKrUNPwtQOo7iCXQrw+S
qRW9W1S+eDeslkf/5RMD9lQPahUbILPtYyLk9Ueo26KIP9dhh4b1fHIhqBnuVXrk
ZAZGJjc5yrBQAZPBgUaXGwL7puCh8tYLBXDxFthdJdw100raqe+LgrguqTcRNjX/
GMG23ASdrRNBO8LZX6UfNdmtkM4R3v4aezfZZIpkNBBNWOXLU94h2FZozK7vfwQT
tgrQh4HnR4jTAweZVuX8RPdML1KM+YH8fGzD4f47qrIE/VNDgwLsPsafWwqCL46M
Yhsa47OjZ4XUoTRt1axOtJ6ba7diAd7z/dbw96F4Be455esUYU+P4YN73Cn6xA==
-----END CERTIFICATE-----
